target datalayout = "e-m:e-p270:32:32-p271:32:32-p272:64:64-i64:64-i128:128-f80:128-n8:16:32:64-S128"
target triple = "x86_64-pc-linux-gnu"

%"class.ncnn::InverseSpectrogram" = type { %"class.ncnn::Layer", i32, i32, i32, i32, i32, i32, i32, %"class.ncnn::Mat" }
%"class.ncnn::Layer" = type { ptr, i8, i8, i8, i8, i8, i8, i8, i8, i8, i8, i8, i8, i8, i8, i8, i8, i8, i8, i8, i8, i32, ptr, i32, %"class.std::__cxx11::basic_string", %"class.std::__cxx11::basic_string", %"class.std::vector", %"class.std::vector", %"class.std::vector.3", %"class.std::vector.3" }
%"class.std::__cxx11::basic_string" = type { %"struct.std::__cxx11::basic_string<char>::_Alloc_hider", i64, %union.anon }
%"struct.std::__cxx11::basic_string<char>::_Alloc_hider" = type { ptr }
%union.anon = type { i64, [8 x i8] }
%"class.std::vector" = type { %"struct.std::_Vector_base" }
%"struct.std::_Vector_base" = type { %"struct.std::_Vector_base<int, std::allocator<int>>::_Vector_impl" }
%"struct.std::_Vector_base<int, std::allocator<int>>::_Vector_impl" = type { %"struct.std::_Vector_base<int, std::allocator<int>>::_Vector_impl_data" }
%"struct.std::_Vector_base<int, std::allocator<int>>::_Vector_impl_data" = type { ptr, ptr, ptr }
%"class.std::vector.3" = type { %"struct.std::_Vector_base.4" }
%"struct.std::_Vector_base.4" = type { %"struct.std::_Vector_base<ncnn::Mat, std::allocator<ncnn::Mat>>::_Vector_impl" }
%"struct.std::_Vector_base<ncnn::Mat, std::allocator<ncnn::Mat>>::_Vector_impl" = type { %"struct.std::_Vector_base<ncnn::Mat, std::allocator<ncnn::Mat>>::_Vector_impl_data" }
%"struct.std::_Vector_base<ncnn::Mat, std::allocator<ncnn::Mat>>::_Vector_impl_data" = type { ptr, ptr, ptr }
%"class.ncnn::Mat" = type { ptr, ptr, i64, i32, ptr, i32, i32, i32, i32, i32, i64 }

; Function Attrs: alwaysinline mustprogress nounwind uwtable
define linkonce_odr hidden void @_ZN4ncnn3MatC2Ev(ptr noundef nonnull align 8 dereferenceable(72) %0) unnamed_addr #3 comdat align 2 {
  %2 = alloca ptr, align 8
  store ptr %0, ptr %2, align 8, !tbaa !52
  %3 = load ptr, ptr %2, align 8
  %4 = getelementptr inbounds nuw %"class.ncnn::Mat", ptr %3, i32 0, i32 0
  store ptr null, ptr %4, align 8, !tbaa !73
  %5 = getelementptr inbounds nuw %"class.ncnn::Mat", ptr %3, i32 0, i32 1
  store ptr null, ptr %5, align 8, !tbaa !74
  %6 = getelementptr inbounds nuw %"class.ncnn::Mat", ptr %3, i32 0, i32 2
  store i64 0, ptr %6, align 8, !tbaa !57
  %7 = getelementptr inbounds nuw %"class.ncnn::Mat", ptr %3, i32 0, i32 3
  store i32 0, ptr %7, align 8, !tbaa !75
  %8 = getelementptr inbounds nuw %"class.ncnn::Mat", ptr %3, i32 0, i32 4
  store ptr null, ptr %8, align 8, !tbaa !76
  %9 = getelementptr inbounds nuw %"class.ncnn::Mat", ptr %3, i32 0, i32 5
  store i32 0, ptr %9, align 8, !tbaa !77
  %10 = getelementptr inbounds nuw %"class.ncnn::Mat", ptr %3, i32 0, i32 6
  store i32 0, ptr %10, align 4, !tbaa !78
  %11 = getelementptr inbounds nuw %"class.ncnn::Mat", ptr %3, i32 0, i32 7
  store i32 0, ptr %11, align 8, !tbaa !55
  %12 = getelementptr inbounds nuw %"class.ncnn::Mat", ptr %3, i32 0, i32 8
  store i32 0, ptr %12, align 4, !tbaa !79
  %13 = getelementptr inbounds nuw %"class.ncnn::Mat", ptr %3, i32 0, i32 9
  store i32 0, ptr %13, align 8, !tbaa !56
  %14 = getelementptr inbounds nuw %"class.ncnn::Mat", ptr %3, i32 0, i32 10
  store i64 0, ptr %14, align 8, !tbaa !80
  ret void
}

; Function Attrs: mustprogress uwtable
define hidden void @_ZN4ncnn18InverseSpectrogramC2Ev(ptr noundef nonnull align 8 dereferenceable(312) %0) unnamed_addr #1 align 2 personality ptr @__gxx_personality_v0 {
  %2 = alloca ptr, align 8
  %3 = alloca ptr, align 8
  %4 = alloca i32, align 4
  store ptr %0, ptr %2, align 8, !tbaa !4
  %5 = load ptr, ptr %2, align 8
  call void @_ZN4ncnn5LayerC2Ev(ptr noundef nonnull align 8 dereferenceable(208) %5)
  store ptr getelementptr inbounds inrange(-16, 80) ({ [12 x ptr] }, ptr @_ZTVN4ncnn18InverseSpectrogramE, i32 0, i32 0, i32 2), ptr %5, align 8, !tbaa !9
  %6 = getelementptr inbounds nuw %"class.ncnn::InverseSpectrogram", ptr %5, i32 0, i32 8
  invoke void @_ZN4ncnn3MatC2Ev(ptr noundef nonnull align 8 dereferenceable(72) %6)
          to label %7 unwind label %10

7:                                                ; preds = %1
  %8 = getelementptr inbounds nuw %"class.ncnn::Layer", ptr %5, i32 0, i32 1
  store i8 1, ptr %8, align 8, !tbaa !71
  %9 = getelementptr inbounds nuw %"class.ncnn::Layer", ptr %5, i32 0, i32 2
  store i8 0, ptr %9, align 1, !tbaa !72
  ret void

10:                                               ; preds = %1
  %11 = landingpad { ptr, i32 }
          cleanup
  %12 = extractvalue { ptr, i32 } %11, 0
  store ptr %12, ptr %3, align 8
  %13 = extractvalue { ptr, i32 } %11, 1
  store i32 %13, ptr %4, align 4
  call void @_ZN4ncnn5LayerD2Ev(ptr noundef nonnull align 8 dereferenceable(208) %5) #9
  br label %14

14:                                               ; preds = %10
  %15 = load ptr, ptr %3, align 8
  %16 = load i32, ptr %4, align 4
  %17 = insertvalue { ptr, i32 } poison, ptr %15, 0
  %18 = insertvalue { ptr, i32 } %17, i32 %16, 1
  resume { ptr, i32 } %18
}